target datalayout = "e-m:e-p270:32:32-p271:32:32-p272:64:64-i64:64-i128:128-f80:128-n8:16:32:64-S128"
target triple = "x86_64-pc-linux-gnu"

%struct.VP8Io = type { i32, i32, i32, i32, i32, ptr, ptr, ptr, i32, i32, ptr, ptr, ptr, ptr, i32, i64, ptr, i32, i32, i32, i32, i32, i32, i32, i32, i32, ptr }
%struct.WebPDecParams = type { ptr, ptr, ptr, ptr, i32, ptr, ptr, ptr, ptr, ptr, ptr, ptr, ptr, ptr }
%struct.WebPDecBuffer = type { i32, i32, i32, i32, %union.anon, [4 x i32], ptr }
%union.anon = type { %struct.WebPYUVABuffer }
%struct.WebPYUVABuffer = type { ptr, ptr, ptr, ptr, i32, i32, i32, i32, i64, i64, i64, i64 }
%struct.WebPRGBABuffer = type { ptr, i32, i64 }

@WebPSamplers = external global [0 x ptr], align 8

; Function Attrs: nounwind uwtable
define internal i32 @EmitSampledRGB(ptr noundef %0, ptr noundef %1) #0 {
  %3 = alloca ptr, align 8
  %4 = alloca ptr, align 8
  %5 = alloca ptr, align 8
  %6 = alloca ptr, align 8
  %7 = alloca ptr, align 8
  store ptr %0, ptr %3, align 8, !tbaa !8
  store ptr %1, ptr %4, align 8, !tbaa !3
  call void @llvm.lifetime.start.p0(i64 8, ptr %5) #6
  %8 = load ptr, ptr %4, align 8, !tbaa !3
  %9 = getelementptr inbounds nuw %struct.WebPDecParams, ptr %8, i32 0, i32 0
  %10 = load ptr, ptr %9, align 8, !tbaa !28
  store ptr %10, ptr %5, align 8, !tbaa !61
  call void @llvm.lifetime.start.p0(i64 8, ptr %6) #6
  %11 = load ptr, ptr %5, align 8, !tbaa !61
  %12 = getelementptr inbounds nuw %struct.WebPDecBuffer, ptr %11, i32 0, i32 4
  store ptr %12, ptr %6, align 8, !tbaa !62
  call void @llvm.lifetime.start.p0(i64 8, ptr %7) #6
  %13 = load ptr, ptr %6, align 8, !tbaa !62
  %14 = getelementptr inbounds nuw %struct.WebPRGBABuffer, ptr %13, i32 0, i32 0
  %15 = load ptr, ptr %14, align 8, !tbaa !64
  %16 = load ptr, ptr %3, align 8, !tbaa !8
  %17 = getelementptr inbounds nuw %struct.VP8Io, ptr %16, i32 0, i32 2
  %18 = load i32, ptr %17, align 8, !tbaa !66
  %19 = sext i32 %18 to i64
  %20 = load ptr, ptr %6, align 8, !tbaa !62
  %21 = getelementptr inbounds nuw %struct.WebPRGBABuffer, ptr %20, i32 0, i32 1
  %22 = load i32, ptr %21, align 8, !tbaa !67
  %23 = sext i32 %22 to i64
  %24 = mul nsw i64 %19, %23
  %25 = getelementptr inbounds i8, ptr %15, i64 %24
  store ptr %25, ptr %7, align 8, !tbaa !44
  %26 = load ptr, ptr %3, align 8, !tbaa !8
  %27 = getelementptr inbounds nuw %struct.VP8Io, ptr %26, i32 0, i32 5
  %28 = load ptr, ptr %27, align 8, !tbaa !68
  %29 = load ptr, ptr %3, align 8, !tbaa !8
  %30 = getelementptr inbounds nuw %struct.VP8Io, ptr %29, i32 0, i32 8
  %31 = load i32, ptr %30, align 8, !tbaa !69
  %32 = load ptr, ptr %3, align 8, !tbaa !8
  %33 = getelementptr inbounds nuw %struct.VP8Io, ptr %32, i32 0, i32 6
  %34 = load ptr, ptr %33, align 8, !tbaa !70
  %35 = load ptr, ptr %3, align 8, !tbaa !8
  %36 = getelementptr inbounds nuw %struct.VP8Io, ptr %35, i32 0, i32 7
  %37 = load ptr, ptr %36, align 8, !tbaa !71
  %38 = load ptr, ptr %3, align 8, !tbaa !8
  %39 = getelementptr inbounds nuw %struct.VP8Io, ptr %38, i32 0, i32 9
  %40 = load i32, ptr %39, align 4, !tbaa !72
  %41 = load ptr, ptr %7, align 8, !tbaa !44
  %42 = load ptr, ptr %6, align 8, !tbaa !62
  %43 = getelementptr inbounds nuw %struct.WebPRGBABuffer, ptr %42, i32 0, i32 1
  %44 = load i32, ptr %43, align 8, !tbaa !67
  %45 = load ptr, ptr %3, align 8, !tbaa !8
  %46 = getelementptr inbounds nuw %struct.VP8Io, ptr %45, i32 0, i32 3
  %47 = load i32, ptr %46, align 4, !tbaa !18
  %48 = load ptr, ptr %3, align 8, !tbaa !8
  %49 = getelementptr inbounds nuw %struct.VP8Io, ptr %48, i32 0, i32 4
  %50 = load i32, ptr %49, align 8, !tbaa !20
  %51 = load ptr, ptr %5, align 8, !tbaa !61
  %52 = getelementptr inbounds nuw %struct.WebPDecBuffer, ptr %51, i32 0, i32 0
  %53 = load i32, ptr %52, align 8, !tbaa !29
  %54 = zext i32 %53 to i64
  %55 = getelementptr inbounds nuw [0 x ptr], ptr @WebPSamplers, i64 0, i64 %54
  %56 = load ptr, ptr %55, align 8, !tbaa !73
  call void @WebPSamplerProcessPlane(ptr noundef %28, i32 noundef %31, ptr noundef %34, ptr noundef %37, i32 noundef %40, ptr noundef %41, i32 noundef %44, i32 noundef %47, i32 noundef %50, ptr noundef %56)
  %57 = load ptr, ptr %3, align 8, !tbaa !8
  %58 = getelementptr inbounds nuw %struct.VP8Io, ptr %57, i32 0, i32 4
  %59 = load i32, ptr %58, align 8, !tbaa !20
  call void @llvm.lifetime.end.p0(i64 8, ptr %7) #6
  call void @llvm.lifetime.end.p0(i64 8, ptr %6) #6
  call void @llvm.lifetime.end.p0(i64 8, ptr %5) #6
  ret i32 %59
}