; Function Attrs: nounwind uwtable
define internal i32 @EmitSampledRGB(ptr noundef readonly captures(none) %0, ptr noundef readonly captures(none) %1) #1 {
  %3 = load ptr, ptr %1, align 8, !tbaa !23
  %4 = getelementptr inbounds nuw i8, ptr %3, i64 16
  %5 = load ptr, ptr %4, align 8, !tbaa !49
  %6 = getelementptr inbounds nuw i8, ptr %0, i64 8
  %7 = load i32, ptr %6, align 8, !tbaa !51
  %8 = sext i32 %7 to i64
  %9 = getelementptr inbounds nuw i8, ptr %3, i64 24
  %10 = load i32, ptr %9, align 8, !tbaa !52
  %11 = sext i32 %10 to i64
  %12 = mul nsw i64 %11, %8
  %13 = getelementptr inbounds i8, ptr %5, i64 %12
  %14 = getelementptr inbounds nuw i8, ptr %0, i64 24
  %15 = load ptr, ptr %14, align 8, !tbaa !53
  %16 = getelementptr inbounds nuw i8, ptr %0, i64 48
  %17 = load i32, ptr %16, align 8, !tbaa !54
  %18 = getelementptr inbounds nuw i8, ptr %0, i64 32
  %19 = load ptr, ptr %18, align 8, !tbaa !55
  %20 = getelementptr inbounds nuw i8, ptr %0, i64 40
  %21 = load ptr, ptr %20, align 8, !tbaa !56
  %22 = getelementptr inbounds nuw i8, ptr %0, i64 52
  %23 = load i32, ptr %22, align 4, !tbaa !57
  %24 = getelementptr inbounds nuw i8, ptr %0, i64 12
  %25 = load i32, ptr %24, align 4, !tbaa !14
  %26 = getelementptr inbounds nuw i8, ptr %0, i64 16
  %27 = load i32, ptr %26, align 8, !tbaa !15
  %28 = load i32, ptr %3, align 8, !tbaa !24
  %29 = zext i32 %28 to i64
  %30 = getelementptr inbounds nuw [0 x ptr], ptr @WebPSamplers, i64 0, i64 %29
  %31 = load ptr, ptr %30, align 8, !tbaa !58
  tail call void @WebPSamplerProcessPlane(ptr noundef %15, i32 noundef %17, ptr noundef %19, ptr noundef %21, i32 noundef %23, ptr noundef %13, i32 noundef %10, i32 noundef %25, i32 noundef %27, ptr noundef %31) #6
  %32 = load i32, ptr %26, align 8, !tbaa !15
  ret i32 %32
}